; Function Attrs: nounwind uwtable
define range(i64 1048576, 0) i64 @dt_get_available_pipe_mem(ptr noundef readonly captures(none) %0) local_unnamed_addr #0 {
  %2 = tail call i64 (...) @dt_get_available_mem() #27
  %3 = getelementptr inbounds nuw i8, ptr %0, i64 620
  %4 = load i32, ptr %3, align 4, !tbaa !28
  %5 = and i32 %4, 8
  %.not = icmp eq i32 %5, 0
  %6 = select i1 %.not, i64 1, i64 3
  %7 = udiv i64 %2, %6
  %spec.select = tail call i64 @llvm.umax.i64(i64 %7, i64 1048576)
  ret i64 %spec.select
}